target datalayout = "e-m:e-p270:32:32-p271:32:32-p272:64:64-i64:64-f80:128-n8:16:32:64-S128"
target triple = "x86_64-pc-linux-gnu"

@.str = private unnamed_addr constant [3 x i8] c"%d\00", align 1
@.str.1 = private unnamed_addr constant [3 x i8] c"%s\00", align 1
@.str.2 = private unnamed_addr constant [4 x i8] c"%d\0A\00", align 1

; Function Attrs: noinline nounwind uwtable
define dso_local i32 @main() #0 {
  %1 = alloca i32, align 4
  %2 = alloca i32, align 4
  %3 = alloca i32, align 4
  %4 = alloca i32, align 4
  %5 = alloca i32, align 4
  %6 = alloca i32, align 4
  %7 = alloca i32, align 4
  %8 = alloca i32, align 4
  %9 = alloca i32, align 4
  %10 = alloca [1000 x i8], align 16
  %11 = alloca [1000 x i8], align 16
  %12 = alloca [1000 x i32], align 16
  %13 = alloca [1000 x i32], align 16
  %14 = alloca [1000 x i32], align 16
  store i32 0, i32* %1, align 4
  %15 = bitcast [1000 x i8]* %10 to i8*
  call void @llvm.memset.p0i8.i64(i8* align 16 %15, i8 0, i64 1000, i1 false)
  %16 = bitcast i8* %15 to <{ i8, [999 x i8] }>*
  %17 = getelementptr inbounds <{ i8, [999 x i8] }>, <{ i8, [999 x i8] }>* %16, i32 0, i32 0
  store i8 48, i8* %17, align 16
  %18 = bitcast [1000 x i8]* %11 to i8*
  call void @llvm.memset.p0i8.i64(i8* align 16 %18, i8 0, i64 1000, i1 false)
  %19 = bitcast i8* %18 to <{ i8, [999 x i8] }>*
  %20 = getelementptr inbounds <{ i8, [999 x i8] }>, <{ i8, [999 x i8] }>* %19, i32 0, i32 0
  store i8 48, i8* %20, align 16
  %21 = bitcast [1000 x i32]* %13 to i8*
  call void @llvm.memset.p0i8.i64(i8* align 16 %21, i8 0, i64 4000, i1 false)
  %22 = call i32 (i8*, ...) @__isoc99_scanf(i8* getelementptr inbounds ([3 x i8], [3 x i8]* @.str, i64 0, i64 0), i32* %2)
  br label %23

23:                                               ; preds = %185, %0
  %24 = load i32, i32* %2, align 4
  %25 = icmp sgt i32 %24, 0
  br i1 %25, label %26, label %194

26:                                               ; preds = %23
  %27 = getelementptr inbounds [1000 x i8], [1000 x i8]* %10, i64 0, i64 0
  call void @llvm.memset.p0i8.i64(i8* align 16 %27, i8 48, i64 1000, i1 false)
  %28 = getelementptr inbounds [1000 x i8], [1000 x i8]* %11, i64 0, i64 0
  call void @llvm.memset.p0i8.i64(i8* align 16 %28, i8 48, i64 1000, i1 false)
  store i32 0, i32* %6, align 4
  br label %29

29:                                               ; preds = %42, %26
  %30 = load i32, i32* %6, align 4
  %31 = icmp slt i32 %30, 1000
  br i1 %31, label %32, label %45

32:                                               ; preds = %29
  %33 = load i32, i32* %6, align 4
  %34 = sext i32 %33 to i64
  %35 = getelementptr inbounds [1000 x i32], [1000 x i32]* %14, i64 0, i64 %34
  store i32 0, i32* %35, align 4
  %36 = load i32, i32* %6, align 4
  %37 = sext i32 %36 to i64
  %38 = getelementptr inbounds [1000 x i32], [1000 x i32]* %12, i64 0, i64 %37
  store i32 0, i32* %38, align 4
  %39 = load i32, i32* %6, align 4
  %40 = sext i32 %39 to i64
  %41 = getelementptr inbounds [1000 x i32], [1000 x i32]* %13, i64 0, i64 %40
  store i32 0, i32* %41, align 4
  br label %42

42:                                               ; preds = %32
  %43 = load i32, i32* %6, align 4
  %44 = add nsw i32 %43, 1
  store i32 %44, i32* %6, align 4
  br label %29

45:                                               ; preds = %29
  %46 = getelementptr inbounds [1000 x i8], [1000 x i8]* %10, i64 0, i64 0
  %47 = call i32 (i8*, ...) @__isoc99_scanf(i8* getelementptr inbounds ([3 x i8], [3 x i8]* @.str.1, i64 0, i64 0), i8* %46)
  %48 = getelementptr inbounds [1000 x i8], [1000 x i8]* %11, i64 0, i64 0
  %49 = call i32 (i8*, ...) @__isoc99_scanf(i8* getelementptr inbounds ([3 x i8], [3 x i8]* @.str.1, i64 0, i64 0), i8* %48)
  %50 = getelementptr inbounds [1000 x i8], [1000 x i8]* %10, i64 0, i64 0
  %51 = call i64 @strlen(i8* %50) #4
  %52 = trunc i64 %51 to i32
  store i32 %52, i32* %4, align 4
  %53 = getelementptr inbounds [1000 x i8], [1000 x i8]* %11, i64 0, i64 0
  %54 = call i64 @strlen(i8* %53) #4
  %55 = trunc i64 %54 to i32
  store i32 %55, i32* %5, align 4
  store i32 0, i32* %6, align 4
  br label %56

56:                                               ; preds = %70, %45
  %57 = load i32, i32* %6, align 4
  %58 = load i32, i32* %4, align 4
  %59 = icmp slt i32 %57, %58
  br i1 %59, label %60, label %73

60:                                               ; preds = %56
  %61 = load i32, i32* %6, align 4
  %62 = sext i32 %61 to i64
  %63 = getelementptr inbounds [1000 x i8], [1000 x i8]* %10, i64 0, i64 %62
  %64 = load i8, i8* %63, align 1
  %65 = sext i8 %64 to i32
  %66 = sub nsw i32 %65, 48
  %67 = load i32, i32* %6, align 4
  %68 = sext i32 %67 to i64
  %69 = getelementptr inbounds [1000 x i32], [1000 x i32]* %12, i64 0, i64 %68
  store i32 %66, i32* %69, align 4
  br label %70

70:                                               ; preds = %60
  %71 = load i32, i32* %6, align 4
  %72 = add nsw i32 %71, 1
  store i32 %72, i32* %6, align 4
  br label %56

73:                                               ; preds = %56
  store i32 0, i32* %6, align 4
  br label %74

74:                                               ; preds = %92, %73
  %75 = load i32, i32* %6, align 4
  %76 = load i32, i32* %5, align 4
  %77 = icmp slt i32 %75, %76
  br i1 %77, label %78, label %95

78:                                               ; preds = %74
  %79 = load i32, i32* %6, align 4
  %80 = sext i32 %79 to i64
  %81 = getelementptr inbounds [1000 x i8], [1000 x i8]* %11, i64 0, i64 %80
  %82 = load i8, i8* %81, align 1
  %83 = sext i8 %82 to i32
  %84 = sub nsw i32 %83, 48
  %85 = load i32, i32* %6, align 4
  %86 = load i32, i32* %4, align 4
  %87 = add nsw i32 %85, %86
  %88 = load i32, i32* %5, align 4
  %89 = sub nsw i32 %87, %88
  %90 = sext i32 %89 to i64
  %91 = getelementptr inbounds [1000 x i32], [1000 x i32]* %13, i64 0, i64 %90
  store i32 %84, i32* %91, align 4
  br label %92

92:                                               ; preds = %78
  %93 = load i32, i32* %6, align 4
  %94 = add nsw i32 %93, 1
  store i32 %94, i32* %6, align 4
  br label %74

95:                                               ; preds = %74
  %96 = load i32, i32* %4, align 4
  %97 = sub nsw i32 %96, 1
  store i32 %97, i32* %6, align 4
  br label %98

98:                                               ; preds = %149, %95
  %99 = load i32, i32* %6, align 4
  %100 = icmp sge i32 %99, 0
  br i1 %100, label %101, label %152

101:                                              ; preds = %98
  %102 = load i32, i32* %6, align 4
  %103 = sext i32 %102 to i64
  %104 = getelementptr inbounds [1000 x i32], [1000 x i32]* %12, i64 0, i64 %103
  %105 = load i32, i32* %104, align 4
  %106 = load i32, i32* %6, align 4
  %107 = sext i32 %106 to i64
  %108 = getelementptr inbounds [1000 x i32], [1000 x i32]* %13, i64 0, i64 %107
  %109 = load i32, i32* %108, align 4
  %110 = icmp sge i32 %105, %109
  br i1 %110, label %111, label %124

111:                                              ; preds = %101
  %112 = load i32, i32* %6, align 4
  %113 = sext i32 %112 to i64
  %114 = getelementptr inbounds [1000 x i32], [1000 x i32]* %12, i64 0, i64 %113
  %115 = load i32, i32* %114, align 4
  %116 = load i32, i32* %6, align 4
  %117 = sext i32 %116 to i64
  %118 = getelementptr inbounds [1000 x i32], [1000 x i32]* %13, i64 0, i64 %117
  %119 = load i32, i32* %118, align 4
  %120 = sub nsw i32 %115, %119
  %121 = load i32, i32* %6, align 4
  %122 = sext i32 %121 to i64
  %123 = getelementptr inbounds [1000 x i32], [1000 x i32]* %14, i64 0, i64 %122
  store i32 %120, i32* %123, align 4
  br label %148

124:                                              ; preds = %101
  %125 = load i32, i32* %6, align 4
  %126 = sext i32 %125 to i64
  %127 = getelementptr inbounds [1000 x i32], [1000 x i32]* %12, i64 0, i64 %126
  %128 = load i32, i32* %127, align 4
  %129 = add nsw i32 %128, 10
  store i32 %129, i32* %127, align 4
  %130 = load i32, i32* %6, align 4
  %131 = sub nsw i32 %130, 1
  %132 = sext i32 %131 to i64
  %133 = getelementptr inbounds [1000 x i32], [1000 x i32]* %12, i64 0, i64 %132
  %134 = load i32, i32* %133, align 4
  %135 = sub nsw i32 %134, 1
  store i32 %135, i32* %133, align 4
  %136 = load i32, i32* %6, align 4
  %137 = sext i32 %136 to i64
  %138 = getelementptr inbounds [1000 x i32], [1000 x i32]* %12, i64 0, i64 %137
  %139 = load i32, i32* %138, align 4
  %140 = load i32, i32* %6, align 4
  %141 = sext i32 %140 to i64
  %142 = getelementptr inbounds [1000 x i32], [1000 x i32]* %13, i64 0, i64 %141
  %143 = load i32, i32* %142, align 4
  %144 = sub nsw i32 %139, %143
  %145 = load i32, i32* %6, align 4
  %146 = sext i32 %145 to i64
  %147 = getelementptr inbounds [1000 x i32], [1000 x i32]* %14, i64 0, i64 %146
  store i32 %144, i32* %147, align 4
  br label %148

148:                                              ; preds = %124, %111
  br label %149

149:                                              ; preds = %148
  %150 = load i32, i32* %6, align 4
  %151 = add nsw i32 %150, -1
  store i32 %151, i32* %6, align 4
  br label %98

152:                                              ; preds = %98
  store i32 0, i32* %6, align 4
  br label %153

153:                                              ; preds = %166, %152
  %154 = load i32, i32* %6, align 4
  %155 = load i32, i32* %4, align 4
  %156 = icmp slt i32 %154, %155
  br i1 %156, label %157, label %169

157:                                              ; preds = %153
  %158 = load i32, i32* %6, align 4
  %159 = sext i32 %158 to i64
  %160 = getelementptr inbounds [1000 x i32], [1000 x i32]* %14, i64 0, i64 %159
  %161 = load i32, i32* %160, align 4
  %162 = icmp ne i32 %161, 0
  br i1 %162, label %163, label %165

163:                                              ; preds = %157
  %164 = load i32, i32* %6, align 4
  store i32 %164, i32* %7, align 4
  br label %169

165:                                              ; preds = %157
  br label %166

166:                                              ; preds = %165
  %167 = load i32, i32* %6, align 4
  %168 = add nsw i32 %167, 1
  store i32 %168, i32* %6, align 4
  br label %153

169:                                              ; preds = %163, %153
  %170 = load i32, i32* %7, align 4
  store i32 %170, i32* %6, align 4
  br label %171

171:                                              ; preds = %182, %169
  %172 = load i32, i32* %6, align 4
  %173 = load i32, i32* %4, align 4
  %174 = sub nsw i32 %173, 1
  %175 = icmp slt i32 %172, %174
  br i1 %175, label %176, label %185

176:                                              ; preds = %171
  %177 = load i32, i32* %6, align 4
  %178 = sext i32 %177 to i64
  %179 = getelementptr inbounds [1000 x i32], [1000 x i32]* %14, i64 0, i64 %178
  %180 = load i32, i32* %179, align 4
  %181 = call i32 (i8*, ...) @printf(i8* getelementptr inbounds ([3 x i8], [3 x i8]* @.str, i64 0, i64 0), i32 %180)
  br label %182

182:                                              ; preds = %176
  %183 = load i32, i32* %6, align 4
  %184 = add nsw i32 %183, 1
  store i32 %184, i32* %6, align 4
  br label %171

185:                                              ; preds = %171
  %186 = load i32, i32* %4, align 4
  %187 = sub nsw i32 %186, 1
  %188 = sext i32 %187 to i64
  %189 = getelementptr inbounds [1000 x i32], [1000 x i32]* %14, i64 0, i64 %188
  %190 = load i32, i32* %189, align 4
  %191 = call i32 (i8*, ...) @printf(i8* getelementptr inbounds ([4 x i8], [4 x i8]* @.str.2, i64 0, i64 0), i32 %190)
  %192 = load i32, i32* %2, align 4
  %193 = add nsw i32 %192, -1
  store i32 %193, i32* %2, align 4
  br label %23

194:                                              ; preds = %23
  ret i32 0
}